target datalayout = "e-m:e-p270:32:32-p271:32:32-p272:64:64-i64:64-i128:128-f80:128-n8:16:32:64-S128"
target triple = "x86_64-pc-linux-gnu"

%struct._lv_freetype_glyph_cache_data_t = type { i32, i32, %struct.lv_font_glyph_dsc_t }
%struct.lv_font_glyph_dsc_t = type { ptr, i16, i16, i16, i16, i16, i32, i8, %union.anon, ptr }
%union.anon = type { ptr }
%struct.lv_point_t = type { i32, i32 }
%struct._lv_freetype_font_dsc_t = type { i32, %struct._lv_font_t, i32, i32, i32, ptr, ptr, ptr, ptr }
%struct._lv_font_t = type { ptr, ptr, ptr, i32, i32, i8, i8, i8, ptr, ptr, ptr }
%struct._lv_freetype_cache_node_t = type { ptr, i32, i32, i32, ptr, i32, ptr, ptr }
%struct.FT_FaceRec_ = type { i64, i64, i64, i64, i64, ptr, ptr, i32, ptr, i32, ptr, %struct.FT_Generic_, %struct.FT_BBox_, i16, i16, i16, i16, i16, i16, i16, i16, ptr, ptr, ptr, ptr, ptr, ptr, %struct.FT_ListRec_, %struct.FT_Generic_, ptr, ptr }
%struct.FT_BBox_ = type { i64, i64, i64, i64 }
%struct.FT_ListRec_ = type { ptr, ptr }
%struct.FT_Generic_ = type { ptr, ptr }
%struct.FT_GlyphSlotRec_ = type { ptr, ptr, ptr, i32, %struct.FT_Generic_, %struct.FT_Glyph_Metrics_, i64, i64, %struct.FT_Vector_, i32, %struct.FT_Bitmap_, i32, i32, %struct.FT_Outline_, i32, ptr, ptr, i64, i64, i64, ptr, ptr }
%struct.FT_Glyph_Metrics_ = type { i64, i64, i64, i64, i64, i64, i64, i64 }
%struct.FT_Vector_ = type { i64, i64 }
%struct.FT_Bitmap_ = type { i32, i32, i32, ptr, i16, i8, i8, ptr }
%struct.FT_Outline_ = type { i16, i16, ptr, ptr, ptr, i32 }

; Function Attrs: inlinehint nounwind uwtable
define internal i32 @lv_mutex_unlock(ptr noundef %0) #5 {
  %2 = alloca ptr, align 8
  store ptr %0, ptr %2, align 8, !tbaa !95
  ret i32 1
}

; Function Attrs: inlinehint nounwind uwtable
define internal i32 @lv_mutex_lock(ptr noundef %0) #5 {
  %2 = alloca ptr, align 8
  store ptr %0, ptr %2, align 8, !tbaa !95
  ret i32 1
}

; Function Attrs: nounwind uwtable
define internal zeroext i1 @freetype_glyph_create_cb(ptr noundef %0, ptr noundef %1) #0 {
  %3 = alloca i1, align 1
  %4 = alloca ptr, align 8
  %5 = alloca ptr, align 8
  %6 = alloca ptr, align 8
  %7 = alloca i32, align 4
  %8 = alloca ptr, align 8
  %9 = alloca ptr, align 8
  %10 = alloca i32, align 4
  %11 = alloca i32, align 4
  %12 = alloca ptr, align 8
  %13 = alloca %struct.lv_point_t, align 4
  %14 = alloca ptr, align 8
  store ptr %0, ptr %4, align 8, !tbaa !10
  store ptr %1, ptr %5, align 8, !tbaa !19
  call void @llvm.lifetime.start.p0(i64 8, ptr %6) #6
  %15 = load ptr, ptr %5, align 8, !tbaa !19
  store ptr %15, ptr %6, align 8, !tbaa !20
  call void @llvm.lifetime.start.p0(i64 4, ptr %7) #6
  call void @llvm.lifetime.start.p0(i64 8, ptr %8) #6
  %16 = load ptr, ptr %4, align 8, !tbaa !10
  %17 = getelementptr inbounds nuw %struct._lv_freetype_glyph_cache_data_t, ptr %16, i32 0, i32 2
  store ptr %17, ptr %8, align 8, !tbaa !19
  %18 = load ptr, ptr %6, align 8, !tbaa !20
  %19 = getelementptr inbounds nuw %struct._lv_freetype_font_dsc_t, ptr %18, i32 0, i32 6
  %20 = load ptr, ptr %19, align 8, !tbaa !22
  %21 = getelementptr inbounds nuw %struct._lv_freetype_cache_node_t, ptr %20, i32 0, i32 5
  %22 = call i32 @lv_mutex_lock(ptr noundef %21)
  call void @llvm.lifetime.start.p0(i64 8, ptr %9) #6
  %23 = load ptr, ptr %6, align 8, !tbaa !20
  %24 = getelementptr inbounds nuw %struct._lv_freetype_font_dsc_t, ptr %23, i32 0, i32 6
  %25 = load ptr, ptr %24, align 8, !tbaa !22
  %26 = getelementptr inbounds nuw %struct._lv_freetype_cache_node_t, ptr %25, i32 0, i32 4
  %27 = load ptr, ptr %26, align 8, !tbaa !27
  store ptr %27, ptr %9, align 8, !tbaa !31
  call void @llvm.lifetime.start.p0(i64 4, ptr %10) #6
  %28 = load ptr, ptr %9, align 8, !tbaa !31
  %29 = load ptr, ptr %4, align 8, !tbaa !10
  %30 = getelementptr inbounds nuw %struct._lv_freetype_glyph_cache_data_t, ptr %29, i32 0, i32 0
  %31 = load i32, ptr %30, align 8, !tbaa !12
  %32 = zext i32 %31 to i64
  %33 = call i32 @FT_Get_Char_Index(ptr noundef %28, i64 noundef %32)
  store i32 %33, ptr %10, align 4, !tbaa !3
  %34 = load ptr, ptr %9, align 8, !tbaa !31
  %35 = getelementptr inbounds nuw %struct.FT_FaceRec_, ptr %34, i32 0, i32 2
  %36 = load i64, ptr %35, align 8, !tbaa !32
  %37 = and i64 %36, 1
  %38 = icmp ne i64 %37, 0
  br i1 %38, label %39, label %45

39:                                               ; preds = %2
  %40 = load ptr, ptr %9, align 8, !tbaa !31
  %41 = load ptr, ptr %6, align 8, !tbaa !20
  %42 = getelementptr inbounds nuw %struct._lv_freetype_font_dsc_t, ptr %41, i32 0, i32 2
  %43 = load i32, ptr %42, align 8, !tbaa !48
  %44 = call i32 @FT_Set_Pixel_Sizes(ptr noundef %40, i32 noundef 0, i32 noundef %43)
  store i32 %44, ptr %7, align 4, !tbaa !3
  br label %48

45:                                               ; preds = %2
  %46 = load ptr, ptr %9, align 8, !tbaa !31
  %47 = call i32 @FT_Select_Size(ptr noundef %46, i32 noundef 0)
  store i32 %47, ptr %7, align 4, !tbaa !3
  br label %48

48:                                               ; preds = %45, %39
  %49 = load i32, ptr %7, align 4, !tbaa !3
  %50 = icmp ne i32 %49, 0
  br i1 %50, label %51, label %60

51:                                               ; preds = %48
  br label %52

52:                                               ; preds = %51
  br label %53

53:                                               ; preds = %52
  br label %54

54:                                               ; preds = %53
  %55 = load ptr, ptr %6, align 8, !tbaa !20
  %56 = getelementptr inbounds nuw %struct._lv_freetype_font_dsc_t, ptr %55, i32 0, i32 6
  %57 = load ptr, ptr %56, align 8, !tbaa !22
  %58 = getelementptr inbounds nuw %struct._lv_freetype_cache_node_t, ptr %57, i32 0, i32 5
  %59 = call i32 @lv_mutex_unlock(ptr noundef %58)
  store i1 false, ptr %3, align 1
  store i32 1, ptr %11, align 4
  br label %247

60:                                               ; preds = %48
  %61 = load ptr, ptr %6, align 8, !tbaa !20
  %62 = getelementptr inbounds nuw %struct._lv_freetype_font_dsc_t, ptr %61, i32 0, i32 4
  %63 = load i32, ptr %62, align 8, !tbaa !49
  %64 = icmp eq i32 %63, 1
  br i1 %64, label %65, label %69

65:                                               ; preds = %60
  %66 = load ptr, ptr %9, align 8, !tbaa !31
  %67 = load i32, ptr %10, align 4, !tbaa !3
  %68 = call i32 @FT_Load_Glyph(ptr noundef %66, i32 noundef %67, i32 noundef 2129928)
  store i32 %68, ptr %7, align 4, !tbaa !3
  br label %79

69:                                               ; preds = %60
  %70 = load ptr, ptr %6, align 8, !tbaa !20
  %71 = getelementptr inbounds nuw %struct._lv_freetype_font_dsc_t, ptr %70, i32 0, i32 4
  %72 = load i32, ptr %71, align 8, !tbaa !49
  %73 = icmp eq i32 %72, 0
  br i1 %73, label %74, label %78

74:                                               ; preds = %69
  %75 = load ptr, ptr %9, align 8, !tbaa !31
  %76 = load i32, ptr %10, align 4, !tbaa !3
  %77 = call i32 @FT_Load_Glyph(ptr noundef %75, i32 noundef %76, i32 noundef 2129920)
  store i32 %77, ptr %7, align 4, !tbaa !3
  br label %78

78:                                               ; preds = %74, %69
  br label %79

79:                                               ; preds = %78, %65
  %80 = load i32, ptr %7, align 4, !tbaa !3
  %81 = icmp ne i32 %80, 0
  br i1 %81, label %82, label %91

82:                                               ; preds = %79
  br label %83

83:                                               ; preds = %82
  br label %84

84:                                               ; preds = %83
  br label %85

85:                                               ; preds = %84
  %86 = load ptr, ptr %6, align 8, !tbaa !20
  %87 = getelementptr inbounds nuw %struct._lv_freetype_font_dsc_t, ptr %86, i32 0, i32 6
  %88 = load ptr, ptr %87, align 8, !tbaa !22
  %89 = getelementptr inbounds nuw %struct._lv_freetype_cache_node_t, ptr %88, i32 0, i32 5
  %90 = call i32 @lv_mutex_unlock(ptr noundef %89)
  store i1 false, ptr %3, align 1
  store i32 1, ptr %11, align 4
  br label %247

91:                                               ; preds = %79
  call void @llvm.lifetime.start.p0(i64 8, ptr %12) #6
  %92 = load ptr, ptr %9, align 8, !tbaa !31
  %93 = getelementptr inbounds nuw %struct.FT_FaceRec_, ptr %92, i32 0, i32 21
  %94 = load ptr, ptr %93, align 8, !tbaa !50
  store ptr %94, ptr %12, align 8, !tbaa !51
  %95 = load ptr, ptr %6, align 8, !tbaa !20
  %96 = getelementptr inbounds nuw %struct._lv_freetype_font_dsc_t, ptr %95, i32 0, i32 4
  %97 = load i32, ptr %96, align 8, !tbaa !49
  %98 = icmp eq i32 %97, 1
  br i1 %98, label %99, label %169

99:                                               ; preds = %91
  %100 = load ptr, ptr %12, align 8, !tbaa !51
  %101 = getelementptr inbounds nuw %struct.FT_GlyphSlotRec_, ptr %100, i32 0, i32 5
  %102 = getelementptr inbounds nuw %struct.FT_Glyph_Metrics_, ptr %101, i32 0, i32 4
  %103 = load i64, ptr %102, align 8, !tbaa !52
  %104 = ashr i64 %103, 6
  %105 = trunc i64 %104 to i16
  %106 = load ptr, ptr %8, align 8, !tbaa !19
  %107 = getelementptr inbounds nuw %struct.lv_font_glyph_dsc_t, ptr %106, i32 0, i32 1
  store i16 %105, ptr %107, align 8, !tbaa !63
  %108 = load ptr, ptr %12, align 8, !tbaa !51
  %109 = getelementptr inbounds nuw %struct.FT_GlyphSlotRec_, ptr %108, i32 0, i32 5
  %110 = getelementptr inbounds nuw %struct.FT_Glyph_Metrics_, ptr %109, i32 0, i32 1
  %111 = load i64, ptr %110, align 8, !tbaa !64
  %112 = ashr i64 %111, 6
  %113 = trunc i64 %112 to i16
  %114 = load ptr, ptr %8, align 8, !tbaa !19
  %115 = getelementptr inbounds nuw %struct.lv_font_glyph_dsc_t, ptr %114, i32 0, i32 3
  store i16 %113, ptr %115, align 4, !tbaa !65
  %116 = load ptr, ptr %12, align 8, !tbaa !51
  %117 = getelementptr inbounds nuw %struct.FT_GlyphSlotRec_, ptr %116, i32 0, i32 5
  %118 = getelementptr inbounds nuw %struct.FT_Glyph_Metrics_, ptr %117, i32 0, i32 0
  %119 = load i64, ptr %118, align 8, !tbaa !66
  %120 = ashr i64 %119, 6
  %121 = trunc i64 %120 to i16
  %122 = load ptr, ptr %8, align 8, !tbaa !19
  %123 = getelementptr inbounds nuw %struct.lv_font_glyph_dsc_t, ptr %122, i32 0, i32 2
  store i16 %121, ptr %123, align 2, !tbaa !67
  %124 = load ptr, ptr %12, align 8, !tbaa !51
  %125 = getelementptr inbounds nuw %struct.FT_GlyphSlotRec_, ptr %124, i32 0, i32 5
  %126 = getelementptr inbounds nuw %struct.FT_Glyph_Metrics_, ptr %125, i32 0, i32 2
  %127 = load i64, ptr %126, align 8, !tbaa !68
  %128 = ashr i64 %127, 6
  %129 = trunc i64 %128 to i16
  %130 = load ptr, ptr %8, align 8, !tbaa !19
  %131 = getelementptr inbounds nuw %struct.lv_font_glyph_dsc_t, ptr %130, i32 0, i32 4
  store i16 %129, ptr %131, align 2, !tbaa !69
  %132 = load ptr, ptr %12, align 8, !tbaa !51
  %133 = getelementptr inbounds nuw %struct.FT_GlyphSlotRec_, ptr %132, i32 0, i32 5
  %134 = getelementptr inbounds nuw %struct.FT_Glyph_Metrics_, ptr %133, i32 0, i32 3
  %135 = load i64, ptr %134, align 8, !tbaa !70
  %136 = load ptr, ptr %12, align 8, !tbaa !51
  %137 = getelementptr inbounds nuw %struct.FT_GlyphSlotRec_, ptr %136, i32 0, i32 5
  %138 = getelementptr inbounds nuw %struct.FT_Glyph_Metrics_, ptr %137, i32 0, i32 1
  %139 = load i64, ptr %138, align 8, !tbaa !64
  %140 = sub nsw i64 %135, %139
  %141 = ashr i64 %140, 6
  %142 = trunc i64 %141 to i16
  %143 = load ptr, ptr %8, align 8, !tbaa !19
  %144 = getelementptr inbounds nuw %struct.lv_font_glyph_dsc_t, ptr %143, i32 0, i32 5
  store i16 %142, ptr %144, align 8, !tbaa !71
  %145 = load ptr, ptr %8, align 8, !tbaa !19
  %146 = getelementptr inbounds nuw %struct.lv_font_glyph_dsc_t, ptr %145, i32 0, i32 6
  store i32 26, ptr %146, align 4, !tbaa !72
  %147 = load ptr, ptr %6, align 8, !tbaa !20
  %148 = getelementptr inbounds nuw %struct._lv_freetype_font_dsc_t, ptr %147, i32 0, i32 3
  %149 = load i32, ptr %148, align 4, !tbaa !73
  %150 = and i32 %149, 1
  %151 = icmp ne i32 %150, 0
  br i1 %151, label %152, label %168

152:                                              ; preds = %99
  %153 = getelementptr inbounds nuw %struct.lv_point_t, ptr %13, i32 0, i32 0
  %154 = load ptr, ptr %8, align 8, !tbaa !19
  %155 = getelementptr inbounds nuw %struct.lv_font_glyph_dsc_t, ptr %154, i32 0, i32 2
  %156 = load i16, ptr %155, align 2, !tbaa !67
  %157 = zext i16 %156 to i32
  store i32 %157, ptr %153, align 4, !tbaa !74
  %158 = getelementptr inbounds nuw %struct.lv_point_t, ptr %13, i32 0, i32 1
  %159 = load ptr, ptr %8, align 8, !tbaa !19
  %160 = getelementptr inbounds nuw %struct.lv_font_glyph_dsc_t, ptr %159, i32 0, i32 3
  %161 = load i16, ptr %160, align 4, !tbaa !65
  %162 = zext i16 %161 to i32
  store i32 %162, ptr %158, align 4, !tbaa !76
  %163 = load i64, ptr %13, align 4
  %164 = call i32 @lv_freetype_italic_transform_on_pos(i64 %163)
  %165 = trunc i32 %164 to i16
  %166 = load ptr, ptr %8, align 8, !tbaa !19
  %167 = getelementptr inbounds nuw %struct.lv_font_glyph_dsc_t, ptr %166, i32 0, i32 2
  store i16 %165, ptr %167, align 2, !tbaa !67
  br label %168

168:                                              ; preds = %152, %99
  br label %228

169:                                              ; preds = %91
  %170 = load ptr, ptr %6, align 8, !tbaa !20
  %171 = getelementptr inbounds nuw %struct._lv_freetype_font_dsc_t, ptr %170, i32 0, i32 4
  %172 = load i32, ptr %171, align 8, !tbaa !49
  %173 = icmp eq i32 %172, 0
  br i1 %173, label %174, label %227

174:                                              ; preds = %169
  call void @llvm.lifetime.start.p0(i64 8, ptr %14) #6
  %175 = load ptr, ptr %9, align 8, !tbaa !31
  %176 = getelementptr inbounds nuw %struct.FT_FaceRec_, ptr %175, i32 0, i32 21
  %177 = load ptr, ptr %176, align 8, !tbaa !50
  %178 = getelementptr inbounds nuw %struct.FT_GlyphSlotRec_, ptr %177, i32 0, i32 10
  store ptr %178, ptr %14, align 8, !tbaa !77
  %179 = load ptr, ptr %12, align 8, !tbaa !51
  %180 = getelementptr inbounds nuw %struct.FT_GlyphSlotRec_, ptr %179, i32 0, i32 8
  %181 = getelementptr inbounds nuw %struct.FT_Vector_, ptr %180, i32 0, i32 0
  %182 = load i64, ptr %181, align 8, !tbaa !79
  %183 = ashr i64 %182, 6
  %184 = trunc i64 %183 to i16
  %185 = load ptr, ptr %8, align 8, !tbaa !19
  %186 = getelementptr inbounds nuw %struct.lv_font_glyph_dsc_t, ptr %185, i32 0, i32 1
  store i16 %184, ptr %186, align 8, !tbaa !63
  %187 = load ptr, ptr %14, align 8, !tbaa !77
  %188 = getelementptr inbounds nuw %struct.FT_Bitmap_, ptr %187, i32 0, i32 0
  %189 = load i32, ptr %188, align 8, !tbaa !80
  %190 = trunc i32 %189 to i16
  %191 = load ptr, ptr %8, align 8, !tbaa !19
  %192 = getelementptr inbounds nuw %struct.lv_font_glyph_dsc_t, ptr %191, i32 0, i32 3
  store i16 %190, ptr %192, align 4, !tbaa !65
  %193 = load ptr, ptr %14, align 8, !tbaa !77
  %194 = getelementptr inbounds nuw %struct.FT_Bitmap_, ptr %193, i32 0, i32 1
  %195 = load i32, ptr %194, align 4, !tbaa !81
  %196 = trunc i32 %195 to i16
  %197 = load ptr, ptr %8, align 8, !tbaa !19
  %198 = getelementptr inbounds nuw %struct.lv_font_glyph_dsc_t, ptr %197, i32 0, i32 2
  store i16 %196, ptr %198, align 2, !tbaa !67
  %199 = load ptr, ptr %12, align 8, !tbaa !51
  %200 = getelementptr inbounds nuw %struct.FT_GlyphSlotRec_, ptr %199, i32 0, i32 11
  %201 = load i32, ptr %200, align 8, !tbaa !82
  %202 = trunc i32 %201 to i16
  %203 = load ptr, ptr %8, align 8, !tbaa !19
  %204 = getelementptr inbounds nuw %struct.lv_font_glyph_dsc_t, ptr %203, i32 0, i32 4
  store i16 %202, ptr %204, align 2, !tbaa !69
  %205 = load ptr, ptr %12, align 8, !tbaa !51
  %206 = getelementptr inbounds nuw %struct.FT_GlyphSlotRec_, ptr %205, i32 0, i32 12
  %207 = load i32, ptr %206, align 4, !tbaa !83
  %208 = load ptr, ptr %8, align 8, !tbaa !19
  %209 = getelementptr inbounds nuw %struct.lv_font_glyph_dsc_t, ptr %208, i32 0, i32 3
  %210 = load i16, ptr %209, align 4, !tbaa !65
  %211 = zext i16 %210 to i32
  %212 = sub nsw i32 %207, %211
  %213 = trunc i32 %212 to i16
  %214 = load ptr, ptr %8, align 8, !tbaa !19
  %215 = getelementptr inbounds nuw %struct.lv_font_glyph_dsc_t, ptr %214, i32 0, i32 5
  store i16 %213, ptr %215, align 8, !tbaa !71
  %216 = load ptr, ptr %12, align 8, !tbaa !51
  %217 = getelementptr inbounds nuw %struct.FT_GlyphSlotRec_, ptr %216, i32 0, i32 9
  %218 = load i32, ptr %217, align 8, !tbaa !84
  %219 = icmp eq i32 %218, 1651078259
  br i1 %219, label %220, label %223

220:                                              ; preds = %174
  %221 = load ptr, ptr %8, align 8, !tbaa !19
  %222 = getelementptr inbounds nuw %struct.lv_font_glyph_dsc_t, ptr %221, i32 0, i32 6
  store i32 25, ptr %222, align 4, !tbaa !72
  br label %226

223:                                              ; preds = %174
  %224 = load ptr, ptr %8, align 8, !tbaa !19
  %225 = getelementptr inbounds nuw %struct.lv_font_glyph_dsc_t, ptr %224, i32 0, i32 6
  store i32 8, ptr %225, align 4, !tbaa !72
  br label %226

226:                                              ; preds = %223, %220
  call void @llvm.lifetime.end.p0(i64 8, ptr %14) #6
  br label %227

227:                                              ; preds = %226, %169
  br label %228

228:                                              ; preds = %227, %168
  %229 = load i32, ptr %10, align 4, !tbaa !3
  %230 = icmp eq i32 %229, 0
  %231 = zext i1 %230 to i32
  %232 = trunc i32 %231 to i8
  %233 = load ptr, ptr %8, align 8, !tbaa !19
  %234 = getelementptr inbounds nuw %struct.lv_font_glyph_dsc_t, ptr %233, i32 0, i32 7
  %235 = load i8, ptr %234, align 8
  %236 = and i8 %232, 1
  %237 = and i8 %235, -2
  %238 = or i8 %237, %236
  store i8 %238, ptr %234, align 8
  %239 = load i32, ptr %10, align 4, !tbaa !3
  %240 = load ptr, ptr %8, align 8, !tbaa !19
  %241 = getelementptr inbounds nuw %struct.lv_font_glyph_dsc_t, ptr %240, i32 0, i32 8
  store i32 %239, ptr %241, align 8, !tbaa !85
  %242 = load ptr, ptr %6, align 8, !tbaa !20
  %243 = getelementptr inbounds nuw %struct._lv_freetype_font_dsc_t, ptr %242, i32 0, i32 6
  %244 = load ptr, ptr %243, align 8, !tbaa !22
  %245 = getelementptr inbounds nuw %struct._lv_freetype_cache_node_t, ptr %244, i32 0, i32 5
  %246 = call i32 @lv_mutex_unlock(ptr noundef %245)
  store i1 true, ptr %3, align 1
  store i32 1, ptr %11, align 4
  call void @llvm.lifetime.end.p0(i64 8, ptr %12) #6
  br label %247

247:                                              ; preds = %228, %85, %54
  call void @llvm.lifetime.end.p0(i64 4, ptr %10) #6
  call void @llvm.lifetime.end.p0(i64 8, ptr %9) #6
  call void @llvm.lifetime.end.p0(i64 8, ptr %8) #6
  call void @llvm.lifetime.end.p0(i64 4, ptr %7) #6
  call void @llvm.lifetime.end.p0(i64 8, ptr %6) #6
  %248 = load i1, ptr %3, align 1
  ret i1 %248
}