; Function Attrs: nounwind uwtable
define internal noundef zeroext i1 @freetype_glyph_create_cb(ptr noundef captures(none) %0, ptr noundef readonly captures(none) %1) #0 {
  %3 = getelementptr inbounds nuw i8, ptr %1, i64 96
  %4 = load ptr, ptr %3, align 8, !tbaa !14
  %5 = getelementptr inbounds nuw i8, ptr %4, i64 24
  %6 = load ptr, ptr %5, align 8, !tbaa !19
  %7 = load i32, ptr %0, align 8, !tbaa !3
  %8 = zext i32 %7 to i64
  %9 = tail call i32 @FT_Get_Char_Index(ptr noundef %6, i64 noundef %8) #8
  %10 = getelementptr inbounds nuw i8, ptr %6, i64 16
  %11 = load i64, ptr %10, align 8, !tbaa !24
  %12 = and i64 %11, 1
  %.not = icmp eq i64 %12, 0
  br i1 %.not, label %17, label %13

13:                                               ; preds = %2
  %14 = getelementptr inbounds nuw i8, ptr %1, i64 72
  %15 = load i32, ptr %14, align 8, !tbaa !40
  %16 = tail call i32 @FT_Set_Pixel_Sizes(ptr noundef nonnull %6, i32 noundef 0, i32 noundef %15) #8
  br label %19

17:                                               ; preds = %2
  %18 = tail call i32 @FT_Select_Size(ptr noundef nonnull %6, i32 noundef 0) #8
  br label %19

19:                                               ; preds = %17, %13
  %.059 = phi i32 [ %16, %13 ], [ %18, %17 ]
  %.not62 = icmp eq i32 %.059, 0
  br i1 %.not62, label %20, label %100

20:                                               ; preds = %19
  %21 = getelementptr inbounds nuw i8, ptr %1, i64 80
  %22 = load i32, ptr %21, align 8, !tbaa !41
  switch i32 %22, label %.thread [
    i32 1, label %24
    i32 0, label %23
  ]

23:                                               ; preds = %20
  br label %24

24:                                               ; preds = %20, %23
  %.sink = phi i32 [ 2129920, %23 ], [ 2129928, %20 ]
  %25 = tail call i32 @FT_Load_Glyph(ptr noundef nonnull %6, i32 noundef %9, i32 noundef %.sink) #8
  %.not63 = icmp eq i32 %25, 0
  br i1 %.not63, label %thread-pre-split, label %100

thread-pre-split:                                 ; preds = %24
  %.pr = load i32, ptr %21, align 8, !tbaa !41
  br label %.thread

.thread:                                          ; preds = %20, %thread-pre-split
  %26 = phi i32 [ %.pr, %thread-pre-split ], [ %22, %20 ]
  %27 = getelementptr inbounds nuw i8, ptr %6, i64 152
  %28 = load ptr, ptr %27, align 8, !tbaa !42
  switch i32 %26, label %92 [
    i32 1, label %29
    i32 0, label %63
  ]

29:                                               ; preds = %.thread
  %30 = getelementptr inbounds nuw i8, ptr %28, i64 48
  %31 = getelementptr inbounds nuw i8, ptr %28, i64 80
  %32 = load i64, ptr %31, align 8, !tbaa !43
  %33 = lshr i64 %32, 6
  %34 = trunc i64 %33 to i16
  %35 = getelementptr inbounds nuw i8, ptr %0, i64 16
  store i16 %34, ptr %35, align 8, !tbaa !54
  %36 = getelementptr inbounds nuw i8, ptr %28, i64 56
  %37 = load i64, ptr %36, align 8, !tbaa !55
  %38 = lshr i64 %37, 6
  %39 = trunc i64 %38 to i16
  %40 = getelementptr inbounds nuw i8, ptr %0, i64 20
  store i16 %39, ptr %40, align 4, !tbaa !56
  %41 = load i64, ptr %30, align 8, !tbaa !57
  %42 = lshr i64 %41, 6
  %43 = trunc i64 %42 to i16
  %44 = getelementptr inbounds nuw i8, ptr %0, i64 18
  store i16 %43, ptr %44, align 2, !tbaa !58
  %45 = getelementptr inbounds nuw i8, ptr %28, i64 64
  %46 = load i64, ptr %45, align 8, !tbaa !59
  %47 = lshr i64 %46, 6
  %48 = trunc i64 %47 to i16
  %49 = getelementptr inbounds nuw i8, ptr %0, i64 22
  store i16 %48, ptr %49, align 2, !tbaa !60
  %50 = getelementptr inbounds nuw i8, ptr %28, i64 72
  %51 = load i64, ptr %50, align 8, !tbaa !61
  %52 = sub nsw i64 %51, %37
  %53 = lshr i64 %52, 6
  %54 = trunc i64 %53 to i16
  %55 = getelementptr inbounds nuw i8, ptr %0, i64 24
  store i16 %54, ptr %55, align 8, !tbaa !62
  %56 = getelementptr inbounds nuw i8, ptr %0, i64 28
  store i32 26, ptr %56, align 4, !tbaa !63
  %57 = getelementptr inbounds nuw i8, ptr %1, i64 76
  %58 = load i32, ptr %57, align 4, !tbaa !64
  %59 = and i32 %58, 1
  %.not64 = icmp eq i32 %59, 0
  br i1 %.not64, label %92, label %60

60:                                               ; preds = %29
  %.sroa.2.0.insert.ext = shl i64 %38, 32
  %.sroa.2.0.insert.shift = and i64 %.sroa.2.0.insert.ext, 281470681743360
  %.sroa.0.0.insert.ext = and i64 %42, 65535
  %.sroa.0.0.insert.insert = or disjoint i64 %.sroa.0.0.insert.ext, %.sroa.2.0.insert.shift
  %61 = tail call i32 @lv_freetype_italic_transform_on_pos(i64 %.sroa.0.0.insert.insert) #8
  %62 = trunc i32 %61 to i16
  store i16 %62, ptr %44, align 2, !tbaa !58
  br label %92

63:                                               ; preds = %.thread
  %64 = getelementptr inbounds nuw i8, ptr %28, i64 152
  %65 = getelementptr inbounds nuw i8, ptr %28, i64 128
  %66 = load i64, ptr %65, align 8, !tbaa !65
  %67 = lshr i64 %66, 6
  %68 = trunc i64 %67 to i16
  %69 = getelementptr inbounds nuw i8, ptr %0, i64 16
  store i16 %68, ptr %69, align 8, !tbaa !54
  %70 = load i32, ptr %64, align 8, !tbaa !66
  %71 = trunc i32 %70 to i16
  %72 = getelementptr inbounds nuw i8, ptr %0, i64 20
  store i16 %71, ptr %72, align 4, !tbaa !56
  %73 = getelementptr inbounds nuw i8, ptr %28, i64 156
  %74 = load i32, ptr %73, align 4, !tbaa !67
  %75 = trunc i32 %74 to i16
  %76 = getelementptr inbounds nuw i8, ptr %0, i64 18
  store i16 %75, ptr %76, align 2, !tbaa !58
  %77 = getelementptr inbounds nuw i8, ptr %28, i64 192
  %78 = load i32, ptr %77, align 8, !tbaa !68
  %79 = trunc i32 %78 to i16
  %80 = getelementptr inbounds nuw i8, ptr %0, i64 22
  store i16 %79, ptr %80, align 2, !tbaa !60
  %81 = getelementptr inbounds nuw i8, ptr %28, i64 196
  %82 = load i32, ptr %81, align 4, !tbaa !69
  %83 = trunc i32 %82 to i16
  %84 = sub i16 %83, %71
  %85 = getelementptr inbounds nuw i8, ptr %0, i64 24
  store i16 %84, ptr %85, align 8, !tbaa !62
  %86 = getelementptr inbounds nuw i8, ptr %28, i64 144
  %87 = load i32, ptr %86, align 8, !tbaa !70
  %88 = icmp eq i32 %87, 1651078259
  %89 = getelementptr inbounds nuw i8, ptr %0, i64 28
  br i1 %88, label %90, label %91

90:                                               ; preds = %63
  store i32 25, ptr %89, align 4, !tbaa !63
  br label %92

91:                                               ; preds = %63
  store i32 8, ptr %89, align 4, !tbaa !63
  br label %92

92:                                               ; preds = %90, %91, %.thread, %29, %60
  %93 = icmp eq i32 %9, 0
  %94 = zext i1 %93 to i8
  %95 = getelementptr inbounds nuw i8, ptr %0, i64 32
  %96 = load i8, ptr %95, align 8
  %97 = and i8 %96, -2
  %98 = or disjoint i8 %97, %94
  store i8 %98, ptr %95, align 8
  %99 = getelementptr inbounds nuw i8, ptr %0, i64 40
  store i32 %9, ptr %99, align 8, !tbaa !71
  br label %100

100:                                              ; preds = %24, %19, %92
  %.0 = phi i1 [ true, %92 ], [ false, %19 ], [ false, %24 ]
  ret i1 %.0
}